Certificate:
    Data:
        Version: 3 (0x2)
        Serial Number: 1 (0x1)
    Signature Algorithm: sha256WithRSAEncryption
        Issuer: O=HassOS, CN=HassOS Provisioning CA Root
        Validity
            Not Before: May 15 16:35:54 2018 GMT
            Not After : May 14 16:35:54 2028 GMT
        Subject: O=HassOS, CN=HassOS Provisioning CA Root
        Subject Public Key Info:
            Public Key Algorithm: rsaEncryption
                Public-Key: (2048 bit)
                Modulus:
                    00:a5:81:96:24:f6:eb:ac:0b:10:72:34:c8:41:70:
                    f5:29:9c:1c:1e:d9:a6:68:a3:ea:c5:e4:68:e7:b5:
                    76:2e:13:e0:0e:fe:8e:c4:2f:d2:76:2c:76:63:15:
                    8d:7e:7f:8a:9f:d8:9a:66:94:b9:b4:6f:5e:bc:a9:
                    59:59:12:fa:bb:7b:af:34:95:79:dd:2d:b1:3e:0e:
                    16:27:92:40:9d:15:55:34:b9:7d:dd:63:2e:64:f9:
                    65:46:e9:b2:de:66:d8:e5:12:9d:af:ca:db:3e:44:
                    15:57:8f:15:17:58:9d:2d:9b:1e:79:7b:ec:eb:28:
                    b3:11:81:a3:34:bb:b5:5d:08:a4:6b:4e:7e:7e:ec:
                    d3:e3:b9:d9:2d:66:e8:04:be:09:d3:75:86:8f:86:
                    94:01:aa:c1:0d:7e:28:74:27:da:c6:b8:d5:bf:94:
                    a0:d2:f5:bf:88:72:40:21:fe:4c:aa:39:06:35:29:
                    ee:c0:f5:f0:f0:85:d0:6b:ea:ee:c7:b7:54:aa:df:
                    e9:e4:cf:cd:5a:1a:61:e5:63:be:3c:7f:4b:6c:ae:
                    79:20:07:e0:44:c5:3d:c2:df:f8:04:64:22:2b:fb:
                    11:cf:99:0e:ba:1f:6b:51:56:ea:27:ca:a6:70:76:
                    19:2f:16:24:35:d9:0a:05:cf:b6:9d:ae:82:4a:e0:
                    5a:c5
                Exponent: 65537 (0x10001)
        X509v3 extensions:
            X509v3 Subject Key Identifier: 
                49:69:2D:A8:24:2F:B0:AC:E6:9A:02:6A:D0:FC:9A:AA:73:9B:62:71
            X509v3 Authority Key Identifier: 
                keyid:49:69:2D:A8:24:2F:B0:AC:E6:9A:02:6A:D0:FC:9A:AA:73:9B:62:71
                DirName:/O=HassOS/CN=HassOS Provisioning CA Root
                serial:01

            X509v3 Basic Constraints: 
                CA:TRUE
    Signature Algorithm: sha256WithRSAEncryption
         08:35:23:fd:fd:da:80:5a:c9:c5:b1:2e:9e:3d:b1:57:7e:ea:
         72:cd:c4:df:b4:5f:a4:47:84:d5:25:6f:c2:27:66:6d:e5:fc:
         91:99:7d:81:7e:38:09:1d:d9:7e:31:fd:db:4b:a3:52:f8:6a:
         98:53:dd:dd:be:21:b3:de:af:01:b5:e4:b1:a6:e4:7b:40:27:
         0c:dc:89:e4:34:78:56:1b:bb:01:e3:2e:90:ee:94:8b:9d:2e:
         f7:37:da:4c:b1:02:ef:7d:53:62:7f:9b:3b:e7:70:44:aa:4e:
         5f:d0:16:a5:1a:2b:62:0b:9e:55:07:12:25:3c:bf:c4:26:52:
         5e:10:c5:b6:25:a7:f7:cd:3b:03:07:bb:66:8f:4a:e6:84:c3:
         06:38:43:ab:2b:c3:29:7c:cb:aa:5f:23:2e:a7:e6:6b:5d:e5:
         dd:d9:ea:2c:59:46:e5:f3:6c:73:9b:eb:ef:74:56:93:f0:e9:
         3c:17:03:57:b6:17:3f:de:2f:2e:1d:6a:65:d8:71:88:6f:ad:
         19:48:d3:3a:05:46:d2:65:71:fa:97:73:38:0c:1d:d2:83:48:
         b1:16:61:7c:f1:db:b6:06:5b:46:8d:45:4c:f4:af:b2:da:b6:
         ca:47:54:f6:e7:37:9e:7a:d6:0c:88:58:06:b0:49:b5:25:16:
         a0:77:9b:5a
-----BEGIN CERTIFICATE-----
MIIDezCCAmOgAwIBAgIBATANBgkqhkiG9w0BAQsFADA3MQ8wDQYDVQQKDAZIYXNz
T1MxJDAiBgNVBAMMG0hhc3NPUyBQcm92aXNpb25pbmcgQ0EgUm9vdDAeFw0xODA1
MTUxNjM1NTRaFw0yODA1MTQxNjM1NTRaMDcxDzANBgNVBAoMBkhhc3NPUzEkMCIG
A1UEAwwbSGFzc09TIFByb3Zpc2lvbmluZyBDQSBSb290MIIBIjANBgkqhkiG9w0B
AQEFAAOCAQ8AMIIBCgKCAQEApYGWJPbrrAsQcjTIQXD1KZwcHtmmaKPqxeRo57V2
LhPgDv6OxC/Sdix2YxWNfn+Kn9iaZpS5tG9evKlZWRL6u3uvNJV53S2xPg4WJ5JA
nRVVNLl93WMuZPllRumy3mbY5RKdr8rbPkQVV48VF1idLZseeXvs6yizEYGjNLu1
XQika05+fuzT47nZLWboBL4J03WGj4aUAarBDX4odCfaxrjVv5Sg0vW/iHJAIf5M
qjkGNSnuwPXw8IXQa+rux7dUqt/p5M/NWhph5WO+PH9LbK55IAfgRMU9wt/4BGQi
K/sRz5kOuh9rUVbqJ8qmcHYZLxYkNdkKBc+2na6CSuBaxQIDAQABo4GRMIGOMB0G
A1UdDgQWBBRJaS2oJC+wrOaaAmrQ/Jqqc5ticTBfBgNVHSMEWDBWgBRJaS2oJC+w
rOaaAmrQ/Jqqc5ticaE7pDkwNzEPMA0GA1UECgwGSGFzc09TMSQwIgYDVQQDDBtI
YXNzT1MgUHJvdmlzaW9uaW5nIENBIFJvb3SCAQEwDAYDVR0TBAUwAwEB/zANBgkq
hkiG9w0BAQsFAAOCAQEACDUj/f3agFrJxbEunj2xV37qcs3E37RfpEeE1SVvwidm
beX8kZl9gX44CR3ZfjH920ujUvhqmFPd3b4hs96vAbXksabke0AnDNyJ5DR4Vhu7
AeMukO6Ui50u9zfaTLEC731TYn+bO+dwRKpOX9AWpRorYgueVQcSJTy/xCZSXhDF
tiWn9807Awe7Zo9K5oTDBjhDqyvDKXzLql8jLqfma13l3dnqLFlG5fNsc5vr73RW
k/DpPBcDV7YXP94vLh1qZdhxiG+tGUjTOgVG0mVx+pdzOAwd0oNIsRZhfPHbtgZb
Ro1FTPSvstq2ykdU9uc3nnrWDIhYBrBJtSUWoHebWg==
-----END CERTIFICATE-----
-----BEGIN X509 CRL-----
MIIBfDBmMA0GCSqGSIb3DQEBCwUAMDcxDzANBgNVBAoMBkhhc3NPUzEkMCIGA1UE
AwwbSGFzc09TIFByb3Zpc2lvbmluZyBDQSBSb290Fw0xODA1MTUxNjM1NTRaFw0z
MjAxMjIxNjM1NTRaMA0GCSqGSIb3DQEBCwUAA4IBAQAWfPq1Bchq5D2B+baE149H
M9ozBTeICoZJ3xNyVPfce9F2VHQjuXngKCVzCgBxeUNJXVbFdDvd0ybs6SoOojeG
WbIeAwzQ2uwluqy7rMx3bvn+QDVUfUP01e7Wd21m1aR+eas6FKCTwUw9CEHMr34s
3TZOJ4av3vVlYcJbCk5mfRQ5xyf6qxsdi/tWHxchrJNi/X/e6AMy2sJmj8mBvPES
JmjWx97JJISvMYuhWZpbycq+SlvISSbP4IcAYAekGJreHxAXuXr4ELZRQAHTeueH
ID0K1fRJU+LVTaQCZohFoECEMqJhrBVs5CTMG2EyEeqlI3I5PTBAyjO362rNkSQz
-----END X509 CRL-----
Certificate:
    Data:
        Version: 3 (0x2)
        Serial Number: 2 (0x2)
    Signature Algorithm: sha256WithRSAEncryption
        Issuer: O=HassOS, CN=HassOS Provisioning CA Root
        Validity
            Not Before: May 15 16:35:54 2018 GMT
            Not After : May 14 16:35:54 2028 GMT
        Subject: O=HassOS, CN=HassOS Provisioning CA Release
        Subject Public Key Info:
            Public Key Algorithm: rsaEncryption
                Public-Key: (2048 bit)
                Modulus:
                    00:b9:38:00:71:51:61:eb:d5:91:87:78:1d:fd:a7:
                    e9:4e:17:75:50:c7:86:2e:4d:64:e3:32:c6:3a:09:
                    13:1a:5d:05:67:af:d5:da:75:c6:cc:b1:b8:c6:b8:
                    86:05:bf:da:fe:62:62:81:c2:1a:34:d4:34:10:20:
                    e3:91:7f:10:d7:f7:18:54:92:02:29:10:8c:39:6b:
                    1f:42:87:60:08:15:92:03:1d:0e:da:88:7c:7e:0a:
                    38:94:d3:d8:fc:8d:d7:7f:d7:0f:6c:94:5d:82:da:
                    bd:b8:5e:26:37:72:6a:75:6d:84:05:f1:64:fa:78:
                    48:98:33:3d:f9:ae:36:67:98:b9:51:19:8a:84:0b:
                    00:18:20:d8:5e:55:22:7b:95:92:e7:81:dd:67:ac:
                    a0:9d:2e:86:a0:79:ee:8d:00:f6:62:c0:9d:5a:99:
                    ac:ec:f0:a6:66:af:b6:f5:05:64:66:34:1e:3d:7a:
                    b4:f5:b5:18:9a:20:e7:d1:a4:36:81:4d:a3:f8:28:
                    c7:3a:17:a3:c2:0f:a2:95:06:f7:a7:de:83:dd:82:
                    72:50:62:b8:24:9d:cc:05:d5:0f:70:1d:98:7f:13:
                    b2:f3:30:5b:dd:83:24:26:b3:af:ea:b3:5d:8b:b5:
                    de:b8:0a:1e:13:ba:f6:1d:ae:08:ba:b2:b3:d7:7d:
                    4f:af
                Exponent: 65537 (0x10001)
        X509v3 extensions:
            X509v3 Subject Key Identifier: 
                E6:1B:A0:DC:7E:B3:8F:81:97:8B:01:83:86:D4:33:5D:A2:B4:F4:2B
            X509v3 Authority Key Identifier: 
                keyid:49:69:2D:A8:24:2F:B0:AC:E6:9A:02:6A:D0:FC:9A:AA:73:9B:62:71
                DirName:/O=HassOS/CN=HassOS Provisioning CA Root
                serial:01

            X509v3 Basic Constraints: 
                CA:TRUE, pathlen:0
    Signature Algorithm: sha256WithRSAEncryption
         63:d9:a4:26:89:fc:4d:0b:e0:51:2f:8e:82:8d:69:9f:1e:fc:
         ed:be:73:a8:f4:8c:99:55:c8:36:af:57:80:9f:97:34:a7:47:
         fb:ae:ee:8f:03:64:2e:88:59:25:c4:f7:e4:8d:85:4b:b3:4a:
         e8:42:84:01:b9:c1:f4:ce:d4:9d:b1:54:34:8d:8d:0d:22:91:
         48:a0:59:f0:ea:b9:f4:a1:0f:63:02:a1:52:cb:c7:92:c0:a7:
         8f:d6:4a:d2:17:36:a5:16:5a:5f:09:1f:48:33:d1:0a:8b:d9:
         41:e9:ae:0d:c6:15:36:63:0e:f8:7b:9d:ab:b0:49:4e:ab:a6:
         1d:54:e5:3f:39:7a:d1:49:31:f7:bf:4f:31:9b:0d:1d:a8:91:
         68:45:b0:fa:e7:e6:9e:2d:37:89:fc:5c:80:64:2c:bb:cd:19:
         8c:d7:5d:d0:b6:76:97:a9:81:e4:2b:77:f9:a3:02:dc:81:d6:
         fe:bd:24:0b:36:6a:c2:0f:b0:60:d9:0e:d3:03:ba:80:d4:50:
         f1:59:dd:bf:c0:96:ee:2c:06:cc:00:2a:cf:dd:48:55:0d:81:
         e6:76:06:92:df:46:29:10:d5:eb:5c:9c:81:75:2d:94:6b:5b:
         2f:15:e3:62:0e:39:53:1c:1f:4a:82:c8:13:c6:ae:91:8c:58:
         e7:70:9e:57
-----BEGIN CERTIFICATE-----
MIIDgTCCAmmgAwIBAgIBAjANBgkqhkiG9w0BAQsFADA3MQ8wDQYDVQQKDAZIYXNz
T1MxJDAiBgNVBAMMG0hhc3NPUyBQcm92aXNpb25pbmcgQ0EgUm9vdDAeFw0xODA1
MTUxNjM1NTRaFw0yODA1MTQxNjM1NTRaMDoxDzANBgNVBAoMBkhhc3NPUzEnMCUG
A1UEAwweSGFzc09TIFByb3Zpc2lvbmluZyBDQSBSZWxlYXNlMIIBIjANBgkqhkiG
9w0BAQEFAAOCAQ8AMIIBCgKCAQEAuTgAcVFh69WRh3gd/afpThd1UMeGLk1k4zLG
OgkTGl0FZ6/V2nXGzLG4xriGBb/a/mJigcIaNNQ0ECDjkX8Q1/cYVJICKRCMOWsf
QodgCBWSAx0O2oh8fgo4lNPY/I3Xf9cPbJRdgtq9uF4mN3JqdW2EBfFk+nhImDM9
+a42Z5i5URmKhAsAGCDYXlUie5WS54HdZ6ygnS6GoHnujQD2YsCdWpms7PCmZq+2
9QVkZjQePXq09bUYmiDn0aQ2gU2j+CjHOhejwg+ilQb3p96D3YJyUGK4JJ3MBdUP
cB2YfxOy8zBb3YMkJrOv6rNdi7XeuAoeE7r2Ha4IurKz131PrwIDAQABo4GUMIGR
MB0GA1UdDgQWBBTmG6DcfrOPgZeLAYOG1DNdorT0KzBfBgNVHSMEWDBWgBRJaS2o
JC+wrOaaAmrQ/Jqqc5ticaE7pDkwNzEPMA0GA1UECgwGSGFzc09TMSQwIgYDVQQD
DBtIYXNzT1MgUHJvdmlzaW9uaW5nIENBIFJvb3SCAQEwDwYDVR0TBAgwBgEB/wIB
ADANBgkqhkiG9w0BAQsFAAOCAQEAY9mkJon8TQvgUS+Ogo1pnx787b5zqPSMmVXI
Nq9XgJ+XNKdH+67ujwNkLohZJcT35I2FS7NK6EKEAbnB9M7UnbFUNI2NDSKRSKBZ
8Oq59KEPYwKhUsvHksCnj9ZK0hc2pRZaXwkfSDPRCovZQemuDcYVNmMO+Hudq7BJ
TqumHVTlPzl60Ukx979PMZsNHaiRaEWw+ufmni03ifxcgGQsu80ZjNdd0LZ2l6mB
5Ct3+aMC3IHW/r0kCzZqwg+wYNkO0wO6gNRQ8Vndv8CW7iwGzAAqz91IVQ2B5nYG
kt9GKRDV61ycgXUtlGtbLxXjYg45UxwfSoLIE8aukYxY53CeVw==
-----END CERTIFICATE-----
-----BEGIN X509 CRL-----
MIIBfzBpMA0GCSqGSIb3DQEBCwUAMDoxDzANBgNVBAoMBkhhc3NPUzEnMCUGA1UE
AwweSGFzc09TIFByb3Zpc2lvbmluZyBDQSBSZWxlYXNlFw0xODA1MTUxNjM1NTRa
Fw0zMjAxMjIxNjM1NTRaMA0GCSqGSIb3DQEBCwUAA4IBAQBOSgkmXR88VTMZfsjY
NYHj2eYSSoFCLLW9CepoeCfIYeb81w6DUusZm4oqyvU+yFj5SBxV6X4ZEJaIaj8r
jZtIbx6O6ocMQp9SX1O0OoG+/JJNm/9eezyhuMEK+OEbpVaPpjw6nvizOJMzAx3G
hdW8u7xOVc004uDyCE0KT/5DTqQifsS1C5NhRZTrXSD4b6PY1d2wJx33zNUlD0B4
7v4f+U9CzQJKY0og7krrlRHfwl8vpMUR4OL1Lxwju8RvcT4u5Do1gp3c7DJ/NJqr
xHQjNseGewHQPrNe4Ix6inwIDRQLimQvF74RlmHf0G+Jf9+m5ixCOWH+ySfReCQ7
fSiy
-----END X509 CRL-----
Certificate:
    Data:
        Version: 3 (0x2)
        Serial Number: 3 (0x3)
    Signature Algorithm: sha256WithRSAEncryption
        Issuer: O=HassOS, CN=HassOS Provisioning CA Root
        Validity
            Not Before: May 15 16:35:54 2018 GMT
            Not After : May 14 16:35:54 2028 GMT
        Subject: O=HassOS, CN=HassOS Provisioning CA Development
        Subject Public Key Info:
            Public Key Algorithm: rsaEncryption
                Public-Key: (2048 bit)
                Modulus:
                    00:e1:db:e7:26:03:db:fe:b8:87:bd:91:57:9a:27:
                    ed:ed:f0:7f:5d:18:0a:5a:a0:18:7d:66:ab:4f:90:
                    ed:c8:ab:de:53:b4:d7:a4:b2:87:e7:d6:28:40:32:
                    11:84:b4:fc:0f:33:f3:97:0c:fe:7c:0e:04:5d:cf:
                    c0:bf:0b:8a:cb:a0:b7:cb:75:e6:b3:76:d0:7b:60:
                    b7:80:be:83:7a:ef:e0:32:fa:91:43:72:c3:2c:72:
                    6c:c7:db:c6:a8:bf:6e:3b:9e:ce:e2:60:6a:b0:7f:
                    38:c5:36:b2:32:f5:50:51:d1:0c:43:e1:b8:cf:b0:
                    fe:10:83:f2:2d:e3:4e:c3:b6:83:e2:17:42:b9:f4:
                    31:b4:b7:47:42:ba:b7:3e:91:f0:8a:90:8f:36:66:
                    ca:6a:9a:6c:96:06:5b:f9:27:4d:ff:94:6b:d3:34:
                    c2:ad:bc:d4:fa:30:0f:76:93:e4:5d:8d:ac:46:b9:
                    ab:e3:7b:44:cc:07:7b:67:33:38:40:7a:73:f5:ef:
                    cd:ab:3a:97:60:77:22:ff:25:83:e6:5f:d7:f6:f1:
                    d1:f9:5d:63:fa:69:5c:9c:b3:b7:60:07:09:b4:78:
                    7d:ca:af:0b:80:46:d5:ee:6e:b1:a4:14:03:ce:7d:
                    62:98:e0:71:31:33:84:7d:65:f4:82:7c:6b:49:18:
                    e6:15
                Exponent: 65537 (0x10001)
        X509v3 extensions:
            X509v3 Subject Key Identifier: 
                A4:B8:E3:2A:38:E2:F4:A4:DC:67:71:E8:04:EC:05:4E:37:27:06:8F
            X509v3 Authority Key Identifier: 
                keyid:49:69:2D:A8:24:2F:B0:AC:E6:9A:02:6A:D0:FC:9A:AA:73:9B:62:71
                DirName:/O=HassOS/CN=HassOS Provisioning CA Root
                serial:01

            X509v3 Basic Constraints: 
                CA:TRUE, pathlen:0
    Signature Algorithm: sha256WithRSAEncryption
         8e:c0:e5:ae:72:94:a6:0c:22:53:27:b9:df:e8:01:60:8a:5b:
         f1:90:4f:56:e1:63:d7:98:c5:1c:49:5f:98:11:79:62:02:b5:
         49:51:1b:b2:38:df:89:c9:3e:35:63:23:48:5a:5c:b2:bf:4c:
         5f:41:4e:75:b6:51:ce:1b:66:f7:85:96:b7:f2:33:7d:6e:42:
         17:60:15:14:18:6f:9f:fb:9b:21:01:28:b5:c7:bd:0c:a4:2c:
         2c:09:a6:5f:ca:b8:f9:02:65:97:30:22:3c:b9:3a:8f:04:31:
         21:d0:ea:66:90:12:fa:e8:10:62:c4:ac:30:3a:e1:29:e1:e2:
         f0:9b:5f:7f:1e:0d:e8:6b:a8:a4:3c:6c:09:97:b2:ab:bf:58:
         16:cc:6f:62:0b:e7:a1:d6:06:f0:aa:7d:be:1f:e4:00:14:d0:
         2a:9c:a7:7d:99:90:74:d2:97:76:f3:72:c0:bf:83:40:41:6b:
         97:ee:ac:a0:ec:5e:79:ba:74:51:ef:d2:22:7f:c8:20:a7:39:
         c6:8f:2b:a8:aa:ad:9e:1b:5e:fe:61:b0:d7:f8:94:6b:64:3c:
         3d:9f:da:4e:59:e8:95:f9:58:81:55:4e:ca:dd:93:24:cf:97:
         4a:0b:47:f2:8c:c8:49:c7:16:cd:69:c0:b6:62:91:19:ae:c9:
         15:ba:99:78
-----BEGIN CERTIFICATE-----
MIIDhTCCAm2gAwIBAgIBAzANBgkqhkiG9w0BAQsFADA3MQ8wDQYDVQQKDAZIYXNz
T1MxJDAiBgNVBAMMG0hhc3NPUyBQcm92aXNpb25pbmcgQ0EgUm9vdDAeFw0xODA1
MTUxNjM1NTRaFw0yODA1MTQxNjM1NTRaMD4xDzANBgNVBAoMBkhhc3NPUzErMCkG
A1UEAwwiSGFzc09TIFByb3Zpc2lvbmluZyBDQSBEZXZlbG9wbWVudDCCASIwDQYJ
KoZIhvcNAQEBBQADggEPADCCAQoCggEBAOHb5yYD2/64h72RV5on7e3wf10YClqg
GH1mq0+Q7cir3lO016Syh+fWKEAyEYS0/A8z85cM/nwOBF3PwL8Lisugt8t15rN2
0Htgt4C+g3rv4DL6kUNywyxybMfbxqi/bjuezuJgarB/OMU2sjL1UFHRDEPhuM+w
/hCD8i3jTsO2g+IXQrn0MbS3R0K6tz6R8IqQjzZmymqabJYGW/knTf+Ua9M0wq28
1PowD3aT5F2NrEa5q+N7RMwHe2czOEB6c/Xvzas6l2B3Iv8lg+Zf1/bx0fldY/pp
XJyzt2AHCbR4fcqvC4BG1e5usaQUA859YpjgcTEzhH1l9IJ8a0kY5hUCAwEAAaOB
lDCBkTAdBgNVHQ4EFgQUpLjjKjji9KTcZ3HoBOwFTjcnBo8wXwYDVR0jBFgwVoAU
SWktqCQvsKzmmgJq0PyaqnObYnGhO6Q5MDcxDzANBgNVBAoMBkhhc3NPUzEkMCIG
A1UEAwwbSGFzc09TIFByb3Zpc2lvbmluZyBDQSBSb290ggEBMA8GA1UdEwQIMAYB
Af8CAQAwDQYJKoZIhvcNAQELBQADggEBAI7A5a5ylKYMIlMnud/oAWCKW/GQT1bh
Y9eYxRxJX5gReWICtUlRG7I434nJPjVjI0haXLK/TF9BTnW2Uc4bZveFlrfyM31u
QhdgFRQYb5/7myEBKLXHvQykLCwJpl/KuPkCZZcwIjy5Oo8EMSHQ6maQEvroEGLE
rDA64Snh4vCbX38eDehrqKQ8bAmXsqu/WBbMb2IL56HWBvCqfb4f5AAU0Cqcp32Z
kHTSl3bzcsC/g0BBa5furKDsXnm6dFHv0iJ/yCCnOcaPK6iqrZ4bXv5hsNf4lGtk
PD2f2k5Z6JX5WIFVTsrdkyTPl0oLR/KMyEnHFs1pwLZikRmuyRW6mXg=
-----END CERTIFICATE-----
-----BEGIN X509 CRL-----
MIIBgzBtMA0GCSqGSIb3DQEBCwUAMD4xDzANBgNVBAoMBkhhc3NPUzErMCkGA1UE
AwwiSGFzc09TIFByb3Zpc2lvbmluZyBDQSBEZXZlbG9wbWVudBcNMTgwNTE1MTYz
NTU0WhcNMzIwMTIyMTYzNTU0WjANBgkqhkiG9w0BAQsFAAOCAQEAhmHxjIYZ+J7U
/Ih4vWTakmjSQgD+cvhOedUMxBBwxerZ2qKB2t3LGSBKjVgOThL84HppNP/Y1Hqs
Kq3RD57aL2ZNdQeP3xXjotb/LXsO8KjNi1SeFFIdXkQ8qFVyXkrbqM2h8PJE3Cu5
yeKJaQytPPl90scqmyS07bfI6akwNyg4W6dKQ8KDQrs3DV+Q1xGff6mUgH/6eTIa
lg8OTjh6yI1+XZr0Yz9bNo0/3AOMTbNTYZMnZTapD6r8k2r3pr7FQ6lIyHaCAUVF
TrWQsqmjuQ2uoj0VZvjKxje8VggNv0NFKg8W3l6p7ng1SVLdzw7i7RIVb+iF9BJC
N373ui3HSw==
-----END X509 CRL-----
Certificate:
    Data:
        Version: 3 (0x2)
        Serial Number: 1 (0x1)
        Signature Algorithm: sha256WithRSAEncryption
        Issuer: O=Dialedin, CN=Dialedin Provisioning CA Root
        Validity
            Not Before: Jan  1 00:00:00 1970 GMT
            Not After : Dec 31 23:59:59 9999 GMT
        Subject: O=Dialedin, CN=Dialedin Provisioning CA Root
        Subject Public Key Info:
            Public Key Algorithm: rsaEncryption
                RSA Public-Key: (2048 bit)
                Modulus:
                    00:e8:12:fd:13:b0:4c:03:96:15:65:d2:3d:ab:0f:
                    61:4f:ed:fa:5a:e5:4d:07:81:11:54:96:84:0f:7c:
                    a0:07:c0:11:43:da:d9:6c:47:30:00:53:d7:0d:3b:
                    83:ea:28:63:38:d4:fc:80:f7:07:d1:cb:7b:05:75:
                    bc:55:9d:df:6b:4e:e6:8e:c4:06:90:16:68:d0:e7:
                    19:7f:4c:0f:1c:03:25:6c:f5:40:27:78:c0:4a:a7:
                    6c:d7:65:94:60:51:3f:54:cf:f4:f4:35:40:de:51:
                    f5:82:63:d4:d6:31:79:aa:16:01:e9:12:39:c1:f3:
                    04:9e:db:c3:92:ba:8a:a3:e6:4e:ee:0c:44:dc:de:
                    ed:48:88:96:cd:53:ed:e6:78:86:e1:a6:a6:8f:b2:
                    d6:48:6d:13:9b:14:ec:36:99:22:25:22:16:b1:eb:
                    dc:07:23:a7:10:c4:d7:0e:0f:6f:b8:89:31:50:44:
                    68:d5:c6:3d:0f:d0:a9:1b:d0:a4:12:43:5f:a1:c1:
                    a6:6c:b6:ea:58:a5:e1:f0:58:68:d0:1f:a2:74:32:
                    49:f4:bd:94:7b:91:1d:8b:56:6b:42:b0:bb:5b:ca:
                    69:66:c2:d9:a5:6b:27:06:a3:e4:cd:f0:08:a0:6d:
                    a5:d5:c4:5c:4d:33:69:23:c1:67:87:a0:b9:2c:d4:
                    31:df
                Exponent: 65537 (0x10001)
        X509v3 extensions:
            X509v3 Subject Key Identifier: 
                20:4A:99:C4:CA:5C:CC:58:6F:CA:0C:5F:EA:74:6D:7B:4B:88:8F:86
            X509v3 Authority Key Identifier: 
                keyid:20:4A:99:C4:CA:5C:CC:58:6F:CA:0C:5F:EA:74:6D:7B:4B:88:8F:86
                DirName:/O=Dialedin/CN=Dialedin Provisioning CA Root
                serial:01

            X509v3 Basic Constraints: 
                CA:TRUE
    Signature Algorithm: sha256WithRSAEncryption
         88:ef:db:63:fa:82:8e:8f:4c:3e:a4:bd:76:c9:cf:33:8a:f8:
         8c:b5:9a:c3:b5:b3:d1:9b:93:94:58:7a:db:6f:38:03:6a:e0:
         b1:9a:d0:27:f1:87:83:30:b1:85:50:19:5e:04:36:f4:d3:23:
         c0:68:93:7a:90:8f:49:4c:19:b6:35:66:18:c0:7d:4e:48:14:
         26:6d:3b:9a:e6:c7:6e:4a:a0:de:3e:4c:e9:76:96:45:c0:f2:
         a3:bd:d6:d1:c9:8e:3c:c7:a4:d2:ea:e7:ff:5b:64:c9:42:e1:
         28:67:7b:86:db:e8:36:27:f8:e2:7a:35:12:4d:7e:7a:59:6e:
         b6:8e:6c:dc:10:ca:6c:f7:82:e5:a9:da:80:72:6a:aa:e2:26:
         0c:85:58:b0:99:a5:2d:cb:ae:29:cc:f1:06:79:f8:54:38:d3:
         02:a8:0a:9f:32:54:d2:d7:f9:d9:e3:23:9f:cb:4d:63:e8:3c:
         17:bc:62:cf:b3:d6:61:1a:72:8a:a9:4f:fb:c6:1a:b1:30:e1:
         01:b4:34:fd:ea:14:a1:43:22:00:d3:b1:7b:57:6e:71:5c:6e:
         45:30:5d:f4:b0:98:52:36:a7:e0:c4:7e:4e:32:54:01:42:da:
         7c:ca:4a:b5:3b:58:ac:72:47:52:cc:e6:78:b6:b1:10:7e:c7:
         84:e3:97:49
-----BEGIN CERTIFICATE-----
MIIDiTCCAnGgAwIBAgIBATANBgkqhkiG9w0BAQsFADA7MREwDwYDVQQKDAhEaWFs
ZWRpbjEmMCQGA1UEAwwdRGlhbGVkaW4gUHJvdmlzaW9uaW5nIENBIFJvb3QwIBcN
NzAwMTAxMDAwMDAwWhgPOTk5OTEyMzEyMzU5NTlaMDsxETAPBgNVBAoMCERpYWxl
ZGluMSYwJAYDVQQDDB1EaWFsZWRpbiBQcm92aXNpb25pbmcgQ0EgUm9vdDCCASIw
DQYJKoZIhvcNAQEBBQADggEPADCCAQoCggEBAOgS/ROwTAOWFWXSPasPYU/t+lrl
TQeBEVSWhA98oAfAEUPa2WxHMABT1w07g+ooYzjU/ID3B9HLewV1vFWd32tO5o7E
BpAWaNDnGX9MDxwDJWz1QCd4wEqnbNdllGBRP1TP9PQ1QN5R9YJj1NYxeaoWAekS
OcHzBJ7bw5K6iqPmTu4MRNze7UiIls1T7eZ4huGmpo+y1khtE5sU7DaZIiUiFrHr
3AcjpxDE1w4Pb7iJMVBEaNXGPQ/QqRvQpBJDX6HBpmy26lil4fBYaNAfonQySfS9
lHuRHYtWa0Kwu1vKaWbC2aVrJwaj5M3wCKBtpdXEXE0zaSPBZ4eguSzUMd8CAwEA
AaOBlTCBkjAdBgNVHQ4EFgQUIEqZxMpczFhvygxf6nRte0uIj4YwYwYDVR0jBFww
WoAUIEqZxMpczFhvygxf6nRte0uIj4ahP6Q9MDsxETAPBgNVBAoMCERpYWxlZGlu
MSYwJAYDVQQDDB1EaWFsZWRpbiBQcm92aXNpb25pbmcgQ0EgUm9vdIIBATAMBgNV
HRMEBTADAQH/MA0GCSqGSIb3DQEBCwUAA4IBAQCI79tj+oKOj0w+pL12yc8ziviM
tZrDtbPRm5OUWHrbbzgDauCxmtAn8YeDMLGFUBleBDb00yPAaJN6kI9JTBm2NWYY
wH1OSBQmbTua5sduSqDePkzpdpZFwPKjvdbRyY48x6TS6uf/W2TJQuEoZ3uG2+g2
J/jiejUSTX56WW62jmzcEMps94LlqdqAcmqq4iYMhViwmaUty64pzPEGefhUONMC
qAqfMlTS1/nZ4yOfy01j6DwXvGLPs9ZhGnKKqU/7xhqxMOEBtDT96hShQyIA07F7
V25xXG5FMF30sJhSNqfgxH5OMlQBQtp8ykq1O1isckdSzOZ4trEQfseE45dJ
-----END CERTIFICATE-----
-----BEGIN X509 CRL-----
MIIBgDBqMA0GCSqGSIb3DQEBCwUAMDsxETAPBgNVBAoMCERpYWxlZGluMSYwJAYD
VQQDDB1EaWFsZWRpbiBQcm92aXNpb25pbmcgQ0EgUm9vdBcNMjMxMDEwMDY0MDE4
WhcNMzcwNjE4MDY0MDE4WjANBgkqhkiG9w0BAQsFAAOCAQEAqa86X9uXxF5Z3OI2
mmWirdo7DWnIt3N57mP1OpoZAq1QcWZyIYI5SQ48xM34iAc5dQ8zd57CjVD3ZC6L
oUG9EOV4LLprTWaIClIHuOrjoR7IUcmLQlRS9tbahFN2/xIWezJSnF82PP2sPvoA
xKiHNzVMtwTqBHfD47/+S7rs0R0twBNcJY+IMiYk8U+0exGm30wrX/DzFxWkmMLy
735ipdS+RRZZRDeDcl2RPHIrYlygmUODsiAAGcPT/Au4qRngpaVCORYGvFq9vXg3
10SaD0jGbmIe81kMt7WPY5RtA/tHmhyI9XAIEcVk3VA1l/PpDVLk47Lr+O1fvo/o
4qgd2Q==
-----END X509 CRL-----
Certificate:
    Data:
        Version: 3 (0x2)
        Serial Number: 3 (0x3)
        Signature Algorithm: sha256WithRSAEncryption
        Issuer: O=Dialedin, CN=Dialedin Provisioning CA Root
        Validity
            Not Before: Jan  1 00:00:00 1970 GMT
            Not After : Dec 31 23:59:59 9999 GMT
        Subject: O=Dialedin, CN=Dialedin Provisioning CA Release
        Subject Public Key Info:
            Public Key Algorithm: rsaEncryption
                RSA Public-Key: (2048 bit)
                Modulus:
                    00:ea:45:50:f4:b9:00:1e:e9:53:fc:a5:23:4e:49:
                    e6:d2:d3:b3:f3:aa:de:15:30:7c:0e:17:d4:fe:40:
                    cf:d8:e3:e2:17:b3:45:6a:f0:f4:c4:82:39:ca:02:
                    c1:80:d3:09:d0:2c:5a:f8:94:33:72:6e:df:f2:20:
                    1c:18:6b:40:33:7c:3c:41:e3:f5:59:9c:b4:6f:92:
                    0b:79:99:05:43:93:db:89:24:fa:22:4e:bc:ef:b9:
                    01:36:b7:8b:be:cb:4e:19:80:b3:b0:9b:52:fe:43:
                    67:88:12:76:a0:dc:00:55:10:87:0a:c4:54:a0:42:
                    02:a2:be:c8:2a:de:6a:e9:7e:4c:c7:46:14:1f:1e:
                    69:e5:74:6b:bb:e3:d4:7e:cf:8f:af:a0:11:5d:6a:
                    98:65:30:6e:d6:37:16:7f:84:d7:d7:37:41:7f:f1:
                    ef:98:0c:0f:30:e0:fe:3c:c8:43:10:0f:66:3d:62:
                    76:0d:e4:16:6c:32:b5:d5:f4:89:fa:6e:d9:91:4b:
                    ea:b6:66:41:36:38:d2:4e:06:b4:b3:1a:ca:61:30:
                    c2:af:56:97:04:16:79:18:02:e0:2f:76:72:16:9a:
                    22:bd:36:79:78:c2:2d:73:bd:ec:3d:c1:22:d9:22:
                    ed:1e:e4:a4:e2:d3:5c:75:06:3d:53:24:77:7a:56:
                    81:29
                Exponent: 65537 (0x10001)
        X509v3 extensions:
            X509v3 Subject Key Identifier: 
                5A:69:D9:FB:39:F6:77:05:27:BA:77:28:EC:E1:EF:1A:C4:3B:A0:90
            X509v3 Authority Key Identifier: 
                keyid:20:4A:99:C4:CA:5C:CC:58:6F:CA:0C:5F:EA:74:6D:7B:4B:88:8F:86
                DirName:/O=Dialedin/CN=Dialedin Provisioning CA Root
                serial:01

            X509v3 Basic Constraints: 
                CA:TRUE, pathlen:0
    Signature Algorithm: sha256WithRSAEncryption
         ca:be:bd:d2:5b:a5:0b:4f:d3:76:a2:a4:03:da:27:ab:02:34:
         4c:6f:38:09:c3:22:bd:73:2d:9c:3b:c0:65:7d:a0:a0:3b:ed:
         61:64:31:3e:24:03:9d:05:95:bc:25:6b:7b:7a:a9:72:05:1d:
         e5:fb:af:5b:57:e1:63:ad:4c:f7:42:c0:00:21:98:9e:3d:b9:
         a2:ae:8b:48:fa:da:7d:13:e8:be:e2:d7:70:4d:62:fd:3e:65:
         8f:5a:1b:f2:9c:d1:72:93:91:d7:54:f4:9f:c0:be:1a:ad:56:
         2c:c6:c2:dc:dc:43:27:0d:35:da:cd:49:72:f5:24:6e:0a:8f:
         f8:5d:f3:88:00:93:98:72:9c:b2:79:7a:2e:e8:7d:2f:4c:df:
         ea:f3:52:70:76:f6:d7:5d:15:dd:ae:8f:3c:83:f6:19:aa:56:
         3f:c3:e0:99:bf:88:90:52:f5:aa:c5:39:a0:df:72:ef:0e:fb:
         11:fa:6a:ef:e3:54:97:9c:d8:9e:02:95:61:77:d0:e1:24:52:
         a7:48:a7:e0:70:a8:e1:75:7e:36:9a:79:b5:91:1c:01:78:80:
         4d:bd:a1:69:82:31:31:87:de:44:65:70:df:4a:ba:84:7f:91:
         61:e6:40:95:12:84:63:ad:3e:38:5a:fc:1c:5e:a0:1f:77:ed:
         fe:08:9f:28
-----BEGIN CERTIFICATE-----
MIIDjzCCAnegAwIBAgIBAzANBgkqhkiG9w0BAQsFADA7MREwDwYDVQQKDAhEaWFs
ZWRpbjEmMCQGA1UEAwwdRGlhbGVkaW4gUHJvdmlzaW9uaW5nIENBIFJvb3QwIBcN
NzAwMTAxMDAwMDAwWhgPOTk5OTEyMzEyMzU5NTlaMD4xETAPBgNVBAoMCERpYWxl
ZGluMSkwJwYDVQQDDCBEaWFsZWRpbiBQcm92aXNpb25pbmcgQ0EgUmVsZWFzZTCC
ASIwDQYJKoZIhvcNAQEBBQADggEPADCCAQoCggEBAOpFUPS5AB7pU/ylI05J5tLT
s/Oq3hUwfA4X1P5Az9jj4hezRWrw9MSCOcoCwYDTCdAsWviUM3Ju3/IgHBhrQDN8
PEHj9VmctG+SC3mZBUOT24kk+iJOvO+5ATa3i77LThmAs7CbUv5DZ4gSdqDcAFUQ
hwrEVKBCAqK+yCreaul+TMdGFB8eaeV0a7vj1H7Pj6+gEV1qmGUwbtY3Fn+E19c3
QX/x75gMDzDg/jzIQxAPZj1idg3kFmwytdX0ifpu2ZFL6rZmQTY40k4GtLMaymEw
wq9WlwQWeRgC4C92chaaIr02eXjCLXO97D3BItki7R7kpOLTXHUGPVMkd3pWgSkC
AwEAAaOBmDCBlTAdBgNVHQ4EFgQUWmnZ+zn2dwUnunco7OHvGsQ7oJAwYwYDVR0j
BFwwWoAUIEqZxMpczFhvygxf6nRte0uIj4ahP6Q9MDsxETAPBgNVBAoMCERpYWxl
ZGluMSYwJAYDVQQDDB1EaWFsZWRpbiBQcm92aXNpb25pbmcgQ0EgUm9vdIIBATAP
BgNVHRMECDAGAQH/AgEAMA0GCSqGSIb3DQEBCwUAA4IBAQDKvr3SW6ULT9N2oqQD
2ierAjRMbzgJwyK9cy2cO8BlfaCgO+1hZDE+JAOdBZW8JWt7eqlyBR3l+69bV+Fj
rUz3QsAAIZiePbmirotI+tp9E+i+4tdwTWL9PmWPWhvynNFyk5HXVPSfwL4arVYs
xsLc3EMnDTXazUly9SRuCo/4XfOIAJOYcpyyeXou6H0vTN/q81JwdvbXXRXdro88
g/YZqlY/w+CZv4iQUvWqxTmg33LvDvsR+mrv41SXnNieApVhd9DhJFKnSKfgcKjh
dX42mnm1kRwBeIBNvaFpgjExh95EZXDfSrqEf5Fh5kCVEoRjrT44WvwcXqAfd+3+
CJ8o
-----END CERTIFICATE-----
-----BEGIN X509 CRL-----
MIIBgzBtMA0GCSqGSIb3DQEBCwUAMD4xETAPBgNVBAoMCERpYWxlZGluMSkwJwYD
VQQDDCBEaWFsZWRpbiBQcm92aXNpb25pbmcgQ0EgUmVsZWFzZRcNMjMxMDEwMDY0
MDE4WhcNMzcwNjE4MDY0MDE4WjANBgkqhkiG9w0BAQsFAAOCAQEAdmC/+7CkZejW
uXIeObKfK2XPskLjElwfPnF6b91KSgPAq+fl8LNrTM5rB5J3NpdUSJzPQtyggHxs
H7n2EcjXaS2VZndHrmqvwE8JNbMduVbrdvLI0gr/6eKM5Ibw2hWUfybtVS9VuA15
1pO/ISwlBwlUdSzvrqXNVugSlyOSQxPx75xuf6Ck08l65c2AIcvI5DwhDlB7m0ZQ
5ATrmWJhwiJUELpH5BV5hUSywLlJQV+76+Pmd288Qk64PUT0rwYBeCWTt4ws6ATY
gT5o0Aqr6+e6b6E1P9y69XSLMEMxbFIErm6vbOFICgajHS8ParVKt2wzdnXiZRoh
NGuaYjr48A==
-----END X509 CRL-----
Certificate:
    Data:
        Version: 3 (0x2)
        Serial Number: 4 (0x4)
        Signature Algorithm: sha256WithRSAEncryption
        Issuer: O=Dialedin, CN=Dialedin Provisioning CA Root
        Validity
            Not Before: Jan  1 00:00:00 1970 GMT
            Not After : Dec 31 23:59:59 9999 GMT
        Subject: O=Dialedin, CN=Dialedin Provisioning CA Development
        Subject Public Key Info:
            Public Key Algorithm: rsaEncryption
                RSA Public-Key: (2048 bit)
                Modulus:
                    00:b8:31:2a:4a:ac:d8:57:f2:d5:ef:bb:8c:f5:6f:
                    75:96:a6:a3:ff:5d:81:01:48:c7:d6:ce:8b:8c:bb:
                    34:2f:96:0a:c8:58:64:78:ff:86:4d:42:15:9d:68:
                    9c:bd:4e:60:7f:d1:ac:f4:5c:76:20:f7:d5:65:39:
                    80:9e:de:9f:24:d9:37:7c:82:dd:ec:d4:51:f2:7d:
                    a4:e8:ef:6a:15:a2:65:f9:e4:91:08:a7:f4:c2:14:
                    90:01:a8:ec:05:5e:ee:7b:d9:eb:3b:86:da:a2:bc:
                    d5:5d:fd:81:1a:8e:84:21:67:b5:1b:6d:df:a4:51:
                    e4:8a:ae:e8:c3:32:dc:c9:5a:9b:9c:e2:16:b3:db:
                    18:7b:2e:63:2a:57:0a:e0:d6:c8:9d:93:c2:2a:30:
                    e8:08:2d:f9:20:8a:7d:61:5c:5b:81:5d:0d:7d:99:
                    1a:e2:b6:ac:6c:58:a8:50:62:17:41:5d:86:28:66:
                    32:8d:1d:4b:85:29:82:3a:96:8f:7a:6a:96:74:9e:
                    38:b3:5f:26:c5:92:1c:fa:8f:34:33:b1:2f:41:06:
                    77:58:e9:ae:92:df:d7:ae:d3:66:e7:f8:ac:aa:74:
                    a2:e1:cc:3c:9b:5f:51:8e:cd:d5:3c:af:a6:d0:bc:
                    d9:54:90:fc:df:14:75:15:6b:b3:bf:03:40:28:1b:
                    4f:f7
                Exponent: 65537 (0x10001)
        X509v3 extensions:
            X509v3 Subject Key Identifier: 
                85:91:C7:51:CB:F1:60:E4:19:18:8E:D4:1C:AD:51:94:7B:D4:2B:17
            X509v3 Authority Key Identifier: 
                keyid:20:4A:99:C4:CA:5C:CC:58:6F:CA:0C:5F:EA:74:6D:7B:4B:88:8F:86
                DirName:/O=Dialedin/CN=Dialedin Provisioning CA Root
                serial:01

            X509v3 Basic Constraints: 
                CA:TRUE, pathlen:0
    Signature Algorithm: sha256WithRSAEncryption
         8b:38:c0:c8:36:9e:20:86:43:75:45:e3:16:22:75:5b:08:25:
         b8:71:8f:34:b5:f6:1b:00:a2:73:7d:74:9b:5f:cf:21:45:55:
         b8:74:d7:d8:54:72:c3:5c:68:42:2e:e7:f7:c9:20:b2:73:f9:
         ed:3a:c7:d0:36:a3:73:e5:6c:ed:e0:91:1f:de:ff:fd:c5:51:
         fe:0e:80:cb:f3:50:b6:9a:41:0b:9b:cd:60:36:dc:c8:42:d4:
         1d:4c:3a:bd:f0:85:92:5b:a5:92:17:cc:cd:11:2a:47:ce:a4:
         ca:ff:71:0a:c9:52:59:e5:73:81:11:4a:52:83:50:2d:a8:05:
         b3:7e:ac:69:aa:ab:b0:eb:6f:88:21:eb:7a:ad:d4:87:60:34:
         23:48:b9:d4:01:11:85:6c:63:61:3d:7e:b7:df:de:75:76:4b:
         8e:2d:b2:7b:c4:b9:87:97:6a:da:34:fc:8b:b6:93:9e:83:69:
         75:04:7e:f4:fe:20:ce:ec:bd:4b:98:a4:79:d5:f7:7b:c9:d3:
         7f:f6:14:06:a0:dc:1f:c4:6c:bf:5b:84:f7:fa:55:b4:d8:4d:
         06:bf:38:b6:d7:e2:b8:a7:5f:ce:01:e1:08:6e:fd:7e:32:e8:
         44:3d:db:e5:a2:8b:63:73:38:d8:47:29:db:da:fc:df:d6:11:
         e8:86:3b:9e
-----BEGIN CERTIFICATE-----
MIIDkzCCAnugAwIBAgIBBDANBgkqhkiG9w0BAQsFADA7MREwDwYDVQQKDAhEaWFs
ZWRpbjEmMCQGA1UEAwwdRGlhbGVkaW4gUHJvdmlzaW9uaW5nIENBIFJvb3QwIBcN
NzAwMTAxMDAwMDAwWhgPOTk5OTEyMzEyMzU5NTlaMEIxETAPBgNVBAoMCERpYWxl
ZGluMS0wKwYDVQQDDCREaWFsZWRpbiBQcm92aXNpb25pbmcgQ0EgRGV2ZWxvcG1l
bnQwggEiMA0GCSqGSIb3DQEBAQUAA4IBDwAwggEKAoIBAQC4MSpKrNhX8tXvu4z1
b3WWpqP/XYEBSMfWzouMuzQvlgrIWGR4/4ZNQhWdaJy9TmB/0az0XHYg99VlOYCe
3p8k2Td8gt3s1FHyfaTo72oVomX55JEIp/TCFJABqOwFXu572es7htqivNVd/YEa
joQhZ7Ubbd+kUeSKrujDMtzJWpuc4haz2xh7LmMqVwrg1sidk8IqMOgILfkgin1h
XFuBXQ19mRritqxsWKhQYhdBXYYoZjKNHUuFKYI6lo96apZ0njizXybFkhz6jzQz
sS9BBndY6a6S39eu02bn+KyqdKLhzDybX1GOzdU8r6bQvNlUkPzfFHUVa7O/A0Ao
G0/3AgMBAAGjgZgwgZUwHQYDVR0OBBYEFIWRx1HL8WDkGRiO1BytUZR71CsXMGMG
A1UdIwRcMFqAFCBKmcTKXMxYb8oMX+p0bXtLiI+GoT+kPTA7MREwDwYDVQQKDAhE
aWFsZWRpbjEmMCQGA1UEAwwdRGlhbGVkaW4gUHJvdmlzaW9uaW5nIENBIFJvb3SC
AQEwDwYDVR0TBAgwBgEB/wIBADANBgkqhkiG9w0BAQsFAAOCAQEAizjAyDaeIIZD
dUXjFiJ1WwgluHGPNLX2GwCic310m1/PIUVVuHTX2FRyw1xoQi7n98kgsnP57TrH
0Dajc+Vs7eCRH97//cVR/g6Ay/NQtppBC5vNYDbcyELUHUw6vfCFklulkhfMzREq
R86kyv9xCslSWeVzgRFKUoNQLagFs36saaqrsOtviCHreq3Uh2A0I0i51AERhWxj
YT1+t9/edXZLji2ye8S5h5dq2jT8i7aTnoNpdQR+9P4gzuy9S5ikedX3e8nTf/YU
BqDcH8Rsv1uE9/pVtNhNBr84ttfiuKdfzgHhCG79fjLoRD3b5aKLY3M42Ecp29r8
39YR6IY7ng==
-----END CERTIFICATE-----
-----BEGIN X509 CRL-----
MIIBnjCBhzANBgkqhkiG9w0BAQsFADBCMREwDwYDVQQKDAhEaWFsZWRpbjEtMCsG
A1UEAwwkRGlhbGVkaW4gUHJvdmlzaW9uaW5nIENBIERldmVsb3BtZW50Fw0yMzEw
MTAwNjQwMThaFw0zNzA2MTgwNjQwMThaMBQwEgIBAhcNMjMxMDEwMDY0MDE3WjAN
BgkqhkiG9w0BAQsFAAOCAQEAODCy03lISaiwBGiQGKBksNu5pEDbMG/uuTBC7lmM
DJ+nFz+7ZMlTaJnrr5RM3PD6flMO/FalbGG9zsN3WUSBIfi39tyE3Mm+kuaT7qbJ
F1lOJZeHTuRspr+yeZShST+naVWQV7IZr/ffd4tdcghGTp7Z0wgUbTJHrPoWO4BE
uO0sSyi2Tr7oaMYg34ATe+W+imp/20PJjsHYzuBmstGYUYcavYzp0xkrG94QwHL0
wjNIIPBiSUlNaqnhU8/p6iDsHh7EU3G9RCs3aNcuyb/+DL9YDaTN7wQZLfmJmGzD
4qSnojRUQ7+84aCpkrBac653pxVNo+06FqJtElgxMs7teQ==
-----END X509 CRL-----
