Certificate:
    Data:
        Version: 3 (0x2)
        Serial Number: 1 (0x1)
    Signature Algorithm: sha256WithRSAEncryption
        Issuer: O=HassOS, CN=HassOS Provisioning CA Root
        Validity
            Not Before: May 15 16:35:54 2018 GMT
            Not After : May 14 16:35:54 2028 GMT
        Subject: O=HassOS, CN=HassOS Provisioning CA Root
        Subject Public Key Info:
            Public Key Algorithm: rsaEncryption
                Public-Key: (2048 bit)
                Modulus:
                    00:a5:81:96:24:f6:eb:ac:0b:10:72:34:c8:41:70:
                    f5:29:9c:1c:1e:d9:a6:68:a3:ea:c5:e4:68:e7:b5:
                    76:2e:13:e0:0e:fe:8e:c4:2f:d2:76:2c:76:63:15:
                    8d:7e:7f:8a:9f:d8:9a:66:94:b9:b4:6f:5e:bc:a9:
                    59:59:12:fa:bb:7b:af:34:95:79:dd:2d:b1:3e:0e:
                    16:27:92:40:9d:15:55:34:b9:7d:dd:63:2e:64:f9:
                    65:46:e9:b2:de:66:d8:e5:12:9d:af:ca:db:3e:44:
                    15:57:8f:15:17:58:9d:2d:9b:1e:79:7b:ec:eb:28:
                    b3:11:81:a3:34:bb:b5:5d:08:a4:6b:4e:7e:7e:ec:
                    d3:e3:b9:d9:2d:66:e8:04:be:09:d3:75:86:8f:86:
                    94:01:aa:c1:0d:7e:28:74:27:da:c6:b8:d5:bf:94:
                    a0:d2:f5:bf:88:72:40:21:fe:4c:aa:39:06:35:29:
                    ee:c0:f5:f0:f0:85:d0:6b:ea:ee:c7:b7:54:aa:df:
                    e9:e4:cf:cd:5a:1a:61:e5:63:be:3c:7f:4b:6c:ae:
                    79:20:07:e0:44:c5:3d:c2:df:f8:04:64:22:2b:fb:
                    11:cf:99:0e:ba:1f:6b:51:56:ea:27:ca:a6:70:76:
                    19:2f:16:24:35:d9:0a:05:cf:b6:9d:ae:82:4a:e0:
                    5a:c5
                Exponent: 65537 (0x10001)
        X509v3 extensions:
            X509v3 Subject Key Identifier: 
                49:69:2D:A8:24:2F:B0:AC:E6:9A:02:6A:D0:FC:9A:AA:73:9B:62:71
            X509v3 Authority Key Identifier: 
                keyid:49:69:2D:A8:24:2F:B0:AC:E6:9A:02:6A:D0:FC:9A:AA:73:9B:62:71
                DirName:/O=HassOS/CN=HassOS Provisioning CA Root
                serial:01

            X509v3 Basic Constraints: 
                CA:TRUE
    Signature Algorithm: sha256WithRSAEncryption
         08:35:23:fd:fd:da:80:5a:c9:c5:b1:2e:9e:3d:b1:57:7e:ea:
         72:cd:c4:df:b4:5f:a4:47:84:d5:25:6f:c2:27:66:6d:e5:fc:
         91:99:7d:81:7e:38:09:1d:d9:7e:31:fd:db:4b:a3:52:f8:6a:
         98:53:dd:dd:be:21:b3:de:af:01:b5:e4:b1:a6:e4:7b:40:27:
         0c:dc:89:e4:34:78:56:1b:bb:01:e3:2e:90:ee:94:8b:9d:2e:
         f7:37:da:4c:b1:02:ef:7d:53:62:7f:9b:3b:e7:70:44:aa:4e:
         5f:d0:16:a5:1a:2b:62:0b:9e:55:07:12:25:3c:bf:c4:26:52:
         5e:10:c5:b6:25:a7:f7:cd:3b:03:07:bb:66:8f:4a:e6:84:c3:
         06:38:43:ab:2b:c3:29:7c:cb:aa:5f:23:2e:a7:e6:6b:5d:e5:
         dd:d9:ea:2c:59:46:e5:f3:6c:73:9b:eb:ef:74:56:93:f0:e9:
         3c:17:03:57:b6:17:3f:de:2f:2e:1d:6a:65:d8:71:88:6f:ad:
         19:48:d3:3a:05:46:d2:65:71:fa:97:73:38:0c:1d:d2:83:48:
         b1:16:61:7c:f1:db:b6:06:5b:46:8d:45:4c:f4:af:b2:da:b6:
         ca:47:54:f6:e7:37:9e:7a:d6:0c:88:58:06:b0:49:b5:25:16:
         a0:77:9b:5a
-----BEGIN CERTIFICATE-----
MIIDezCCAmOgAwIBAgIBATANBgkqhkiG9w0BAQsFADA3MQ8wDQYDVQQKDAZIYXNz
T1MxJDAiBgNVBAMMG0hhc3NPUyBQcm92aXNpb25pbmcgQ0EgUm9vdDAeFw0xODA1
MTUxNjM1NTRaFw0yODA1MTQxNjM1NTRaMDcxDzANBgNVBAoMBkhhc3NPUzEkMCIG
A1UEAwwbSGFzc09TIFByb3Zpc2lvbmluZyBDQSBSb290MIIBIjANBgkqhkiG9w0B
AQEFAAOCAQ8AMIIBCgKCAQEApYGWJPbrrAsQcjTIQXD1KZwcHtmmaKPqxeRo57V2
LhPgDv6OxC/Sdix2YxWNfn+Kn9iaZpS5tG9evKlZWRL6u3uvNJV53S2xPg4WJ5JA
nRVVNLl93WMuZPllRumy3mbY5RKdr8rbPkQVV48VF1idLZseeXvs6yizEYGjNLu1
XQika05+fuzT47nZLWboBL4J03WGj4aUAarBDX4odCfaxrjVv5Sg0vW/iHJAIf5M
qjkGNSnuwPXw8IXQa+rux7dUqt/p5M/NWhph5WO+PH9LbK55IAfgRMU9wt/4BGQi
K/sRz5kOuh9rUVbqJ8qmcHYZLxYkNdkKBc+2na6CSuBaxQIDAQABo4GRMIGOMB0G
A1UdDgQWBBRJaS2oJC+wrOaaAmrQ/Jqqc5ticTBfBgNVHSMEWDBWgBRJaS2oJC+w
rOaaAmrQ/Jqqc5ticaE7pDkwNzEPMA0GA1UECgwGSGFzc09TMSQwIgYDVQQDDBtI
YXNzT1MgUHJvdmlzaW9uaW5nIENBIFJvb3SCAQEwDAYDVR0TBAUwAwEB/zANBgkq
hkiG9w0BAQsFAAOCAQEACDUj/f3agFrJxbEunj2xV37qcs3E37RfpEeE1SVvwidm
beX8kZl9gX44CR3ZfjH920ujUvhqmFPd3b4hs96vAbXksabke0AnDNyJ5DR4Vhu7
AeMukO6Ui50u9zfaTLEC731TYn+bO+dwRKpOX9AWpRorYgueVQcSJTy/xCZSXhDF
tiWn9807Awe7Zo9K5oTDBjhDqyvDKXzLql8jLqfma13l3dnqLFlG5fNsc5vr73RW
k/DpPBcDV7YXP94vLh1qZdhxiG+tGUjTOgVG0mVx+pdzOAwd0oNIsRZhfPHbtgZb
Ro1FTPSvstq2ykdU9uc3nnrWDIhYBrBJtSUWoHebWg==
-----END CERTIFICATE-----
-----BEGIN X509 CRL-----
MIIBfDBmMA0GCSqGSIb3DQEBCwUAMDcxDzANBgNVBAoMBkhhc3NPUzEkMCIGA1UE
AwwbSGFzc09TIFByb3Zpc2lvbmluZyBDQSBSb290Fw0xODA1MTUxNjM1NTRaFw0z
MjAxMjIxNjM1NTRaMA0GCSqGSIb3DQEBCwUAA4IBAQAWfPq1Bchq5D2B+baE149H
M9ozBTeICoZJ3xNyVPfce9F2VHQjuXngKCVzCgBxeUNJXVbFdDvd0ybs6SoOojeG
WbIeAwzQ2uwluqy7rMx3bvn+QDVUfUP01e7Wd21m1aR+eas6FKCTwUw9CEHMr34s
3TZOJ4av3vVlYcJbCk5mfRQ5xyf6qxsdi/tWHxchrJNi/X/e6AMy2sJmj8mBvPES
JmjWx97JJISvMYuhWZpbycq+SlvISSbP4IcAYAekGJreHxAXuXr4ELZRQAHTeueH
ID0K1fRJU+LVTaQCZohFoECEMqJhrBVs5CTMG2EyEeqlI3I5PTBAyjO362rNkSQz
-----END X509 CRL-----
-----BEGIN X509 CRL-----
MIIBfzBpMA0GCSqGSIb3DQEBCwUAMDoxDzANBgNVBAoMBkhhc3NPUzEnMCUGA1UE
AwweSGFzc09TIFByb3Zpc2lvbmluZyBDQSBSZWxlYXNlFw0xODA1MTUxNjM1NTRa
Fw0zMjAxMjIxNjM1NTRaMA0GCSqGSIb3DQEBCwUAA4IBAQBOSgkmXR88VTMZfsjY
NYHj2eYSSoFCLLW9CepoeCfIYeb81w6DUusZm4oqyvU+yFj5SBxV6X4ZEJaIaj8r
jZtIbx6O6ocMQp9SX1O0OoG+/JJNm/9eezyhuMEK+OEbpVaPpjw6nvizOJMzAx3G
hdW8u7xOVc004uDyCE0KT/5DTqQifsS1C5NhRZTrXSD4b6PY1d2wJx33zNUlD0B4
7v4f+U9CzQJKY0og7krrlRHfwl8vpMUR4OL1Lxwju8RvcT4u5Do1gp3c7DJ/NJqr
xHQjNseGewHQPrNe4Ix6inwIDRQLimQvF74RlmHf0G+Jf9+m5ixCOWH+ySfReCQ7
fSiy
-----END X509 CRL-----
-----BEGIN X509 CRL-----
MIIBgzBtMA0GCSqGSIb3DQEBCwUAMD4xDzANBgNVBAoMBkhhc3NPUzErMCkGA1UE
AwwiSGFzc09TIFByb3Zpc2lvbmluZyBDQSBEZXZlbG9wbWVudBcNMTgwNTE1MTYz
NTU0WhcNMzIwMTIyMTYzNTU0WjANBgkqhkiG9w0BAQsFAAOCAQEAhmHxjIYZ+J7U
/Ih4vWTakmjSQgD+cvhOedUMxBBwxerZ2qKB2t3LGSBKjVgOThL84HppNP/Y1Hqs
Kq3RD57aL2ZNdQeP3xXjotb/LXsO8KjNi1SeFFIdXkQ8qFVyXkrbqM2h8PJE3Cu5
yeKJaQytPPl90scqmyS07bfI6akwNyg4W6dKQ8KDQrs3DV+Q1xGff6mUgH/6eTIa
lg8OTjh6yI1+XZr0Yz9bNo0/3AOMTbNTYZMnZTapD6r8k2r3pr7FQ6lIyHaCAUVF
TrWQsqmjuQ2uoj0VZvjKxje8VggNv0NFKg8W3l6p7ng1SVLdzw7i7RIVb+iF9BJC
N373ui3HSw==
-----END X509 CRL-----
Certificate:
    Data:
        Version: 3 (0x2)
        Serial Number: 1 (0x1)
        Signature Algorithm: sha256WithRSAEncryption
        Issuer: O=Dialedin, CN=Dialedin Provisioning CA Root
        Validity
            Not Before: Jan  1 00:00:00 1970 GMT
            Not After : Dec 31 23:59:59 9999 GMT
        Subject: O=Dialedin, CN=Dialedin Provisioning CA Root
        Subject Public Key Info:
            Public Key Algorithm: rsaEncryption
                RSA Public-Key: (2048 bit)
                Modulus:
                    00:e8:12:fd:13:b0:4c:03:96:15:65:d2:3d:ab:0f:
                    61:4f:ed:fa:5a:e5:4d:07:81:11:54:96:84:0f:7c:
                    a0:07:c0:11:43:da:d9:6c:47:30:00:53:d7:0d:3b:
                    83:ea:28:63:38:d4:fc:80:f7:07:d1:cb:7b:05:75:
                    bc:55:9d:df:6b:4e:e6:8e:c4:06:90:16:68:d0:e7:
                    19:7f:4c:0f:1c:03:25:6c:f5:40:27:78:c0:4a:a7:
                    6c:d7:65:94:60:51:3f:54:cf:f4:f4:35:40:de:51:
                    f5:82:63:d4:d6:31:79:aa:16:01:e9:12:39:c1:f3:
                    04:9e:db:c3:92:ba:8a:a3:e6:4e:ee:0c:44:dc:de:
                    ed:48:88:96:cd:53:ed:e6:78:86:e1:a6:a6:8f:b2:
                    d6:48:6d:13:9b:14:ec:36:99:22:25:22:16:b1:eb:
                    dc:07:23:a7:10:c4:d7:0e:0f:6f:b8:89:31:50:44:
                    68:d5:c6:3d:0f:d0:a9:1b:d0:a4:12:43:5f:a1:c1:
                    a6:6c:b6:ea:58:a5:e1:f0:58:68:d0:1f:a2:74:32:
                    49:f4:bd:94:7b:91:1d:8b:56:6b:42:b0:bb:5b:ca:
                    69:66:c2:d9:a5:6b:27:06:a3:e4:cd:f0:08:a0:6d:
                    a5:d5:c4:5c:4d:33:69:23:c1:67:87:a0:b9:2c:d4:
                    31:df
                Exponent: 65537 (0x10001)
        X509v3 extensions:
            X509v3 Subject Key Identifier: 
                20:4A:99:C4:CA:5C:CC:58:6F:CA:0C:5F:EA:74:6D:7B:4B:88:8F:86
            X509v3 Authority Key Identifier: 
                keyid:20:4A:99:C4:CA:5C:CC:58:6F:CA:0C:5F:EA:74:6D:7B:4B:88:8F:86
                DirName:/O=Dialedin/CN=Dialedin Provisioning CA Root
                serial:01

            X509v3 Basic Constraints: 
                CA:TRUE
    Signature Algorithm: sha256WithRSAEncryption
         88:ef:db:63:fa:82:8e:8f:4c:3e:a4:bd:76:c9:cf:33:8a:f8:
         8c:b5:9a:c3:b5:b3:d1:9b:93:94:58:7a:db:6f:38:03:6a:e0:
         b1:9a:d0:27:f1:87:83:30:b1:85:50:19:5e:04:36:f4:d3:23:
         c0:68:93:7a:90:8f:49:4c:19:b6:35:66:18:c0:7d:4e:48:14:
         26:6d:3b:9a:e6:c7:6e:4a:a0:de:3e:4c:e9:76:96:45:c0:f2:
         a3:bd:d6:d1:c9:8e:3c:c7:a4:d2:ea:e7:ff:5b:64:c9:42:e1:
         28:67:7b:86:db:e8:36:27:f8:e2:7a:35:12:4d:7e:7a:59:6e:
         b6:8e:6c:dc:10:ca:6c:f7:82:e5:a9:da:80:72:6a:aa:e2:26:
         0c:85:58:b0:99:a5:2d:cb:ae:29:cc:f1:06:79:f8:54:38:d3:
         02:a8:0a:9f:32:54:d2:d7:f9:d9:e3:23:9f:cb:4d:63:e8:3c:
         17:bc:62:cf:b3:d6:61:1a:72:8a:a9:4f:fb:c6:1a:b1:30:e1:
         01:b4:34:fd:ea:14:a1:43:22:00:d3:b1:7b:57:6e:71:5c:6e:
         45:30:5d:f4:b0:98:52:36:a7:e0:c4:7e:4e:32:54:01:42:da:
         7c:ca:4a:b5:3b:58:ac:72:47:52:cc:e6:78:b6:b1:10:7e:c7:
         84:e3:97:49
-----BEGIN CERTIFICATE-----
MIIDiTCCAnGgAwIBAgIBATANBgkqhkiG9w0BAQsFADA7MREwDwYDVQQKDAhEaWFs
ZWRpbjEmMCQGA1UEAwwdRGlhbGVkaW4gUHJvdmlzaW9uaW5nIENBIFJvb3QwIBcN
NzAwMTAxMDAwMDAwWhgPOTk5OTEyMzEyMzU5NTlaMDsxETAPBgNVBAoMCERpYWxl
ZGluMSYwJAYDVQQDDB1EaWFsZWRpbiBQcm92aXNpb25pbmcgQ0EgUm9vdDCCASIw
DQYJKoZIhvcNAQEBBQADggEPADCCAQoCggEBAOgS/ROwTAOWFWXSPasPYU/t+lrl
TQeBEVSWhA98oAfAEUPa2WxHMABT1w07g+ooYzjU/ID3B9HLewV1vFWd32tO5o7E
BpAWaNDnGX9MDxwDJWz1QCd4wEqnbNdllGBRP1TP9PQ1QN5R9YJj1NYxeaoWAekS
OcHzBJ7bw5K6iqPmTu4MRNze7UiIls1T7eZ4huGmpo+y1khtE5sU7DaZIiUiFrHr
3AcjpxDE1w4Pb7iJMVBEaNXGPQ/QqRvQpBJDX6HBpmy26lil4fBYaNAfonQySfS9
lHuRHYtWa0Kwu1vKaWbC2aVrJwaj5M3wCKBtpdXEXE0zaSPBZ4eguSzUMd8CAwEA
AaOBlTCBkjAdBgNVHQ4EFgQUIEqZxMpczFhvygxf6nRte0uIj4YwYwYDVR0jBFww
WoAUIEqZxMpczFhvygxf6nRte0uIj4ahP6Q9MDsxETAPBgNVBAoMCERpYWxlZGlu
MSYwJAYDVQQDDB1EaWFsZWRpbiBQcm92aXNpb25pbmcgQ0EgUm9vdIIBATAMBgNV
HRMEBTADAQH/MA0GCSqGSIb3DQEBCwUAA4IBAQCI79tj+oKOj0w+pL12yc8ziviM
tZrDtbPRm5OUWHrbbzgDauCxmtAn8YeDMLGFUBleBDb00yPAaJN6kI9JTBm2NWYY
wH1OSBQmbTua5sduSqDePkzpdpZFwPKjvdbRyY48x6TS6uf/W2TJQuEoZ3uG2+g2
J/jiejUSTX56WW62jmzcEMps94LlqdqAcmqq4iYMhViwmaUty64pzPEGefhUONMC
qAqfMlTS1/nZ4yOfy01j6DwXvGLPs9ZhGnKKqU/7xhqxMOEBtDT96hShQyIA07F7
V25xXG5FMF30sJhSNqfgxH5OMlQBQtp8ykq1O1isckdSzOZ4trEQfseE45dJ
-----END CERTIFICATE-----
-----BEGIN X509 CRL-----
MIIBgDBqMA0GCSqGSIb3DQEBCwUAMDsxETAPBgNVBAoMCERpYWxlZGluMSYwJAYD
VQQDDB1EaWFsZWRpbiBQcm92aXNpb25pbmcgQ0EgUm9vdBcNMjMxMDEwMDY0MDE4
WhcNMzcwNjE4MDY0MDE4WjANBgkqhkiG9w0BAQsFAAOCAQEAqa86X9uXxF5Z3OI2
mmWirdo7DWnIt3N57mP1OpoZAq1QcWZyIYI5SQ48xM34iAc5dQ8zd57CjVD3ZC6L
oUG9EOV4LLprTWaIClIHuOrjoR7IUcmLQlRS9tbahFN2/xIWezJSnF82PP2sPvoA
xKiHNzVMtwTqBHfD47/+S7rs0R0twBNcJY+IMiYk8U+0exGm30wrX/DzFxWkmMLy
735ipdS+RRZZRDeDcl2RPHIrYlygmUODsiAAGcPT/Au4qRngpaVCORYGvFq9vXg3
10SaD0jGbmIe81kMt7WPY5RtA/tHmhyI9XAIEcVk3VA1l/PpDVLk47Lr+O1fvo/o
4qgd2Q==
-----END X509 CRL-----
-----BEGIN X509 CRL-----
MIIBgzBtMA0GCSqGSIb3DQEBCwUAMD4xETAPBgNVBAoMCERpYWxlZGluMSkwJwYD
VQQDDCBEaWFsZWRpbiBQcm92aXNpb25pbmcgQ0EgUmVsZWFzZRcNMjMxMDEwMDY0
MDE4WhcNMzcwNjE4MDY0MDE4WjANBgkqhkiG9w0BAQsFAAOCAQEAdmC/+7CkZejW
uXIeObKfK2XPskLjElwfPnF6b91KSgPAq+fl8LNrTM5rB5J3NpdUSJzPQtyggHxs
H7n2EcjXaS2VZndHrmqvwE8JNbMduVbrdvLI0gr/6eKM5Ibw2hWUfybtVS9VuA15
1pO/ISwlBwlUdSzvrqXNVugSlyOSQxPx75xuf6Ck08l65c2AIcvI5DwhDlB7m0ZQ
5ATrmWJhwiJUELpH5BV5hUSywLlJQV+76+Pmd288Qk64PUT0rwYBeCWTt4ws6ATY
gT5o0Aqr6+e6b6E1P9y69XSLMEMxbFIErm6vbOFICgajHS8ParVKt2wzdnXiZRoh
NGuaYjr48A==
-----END X509 CRL-----
-----BEGIN X509 CRL-----
MIIBnjCBhzANBgkqhkiG9w0BAQsFADBCMREwDwYDVQQKDAhEaWFsZWRpbjEtMCsG
A1UEAwwkRGlhbGVkaW4gUHJvdmlzaW9uaW5nIENBIERldmVsb3BtZW50Fw0yMzEw
MTAwNjQwMThaFw0zNzA2MTgwNjQwMThaMBQwEgIBAhcNMjMxMDEwMDY0MDE3WjAN
BgkqhkiG9w0BAQsFAAOCAQEAODCy03lISaiwBGiQGKBksNu5pEDbMG/uuTBC7lmM
DJ+nFz+7ZMlTaJnrr5RM3PD6flMO/FalbGG9zsN3WUSBIfi39tyE3Mm+kuaT7qbJ
F1lOJZeHTuRspr+yeZShST+naVWQV7IZr/ffd4tdcghGTp7Z0wgUbTJHrPoWO4BE
uO0sSyi2Tr7oaMYg34ATe+W+imp/20PJjsHYzuBmstGYUYcavYzp0xkrG94QwHL0
wjNIIPBiSUlNaqnhU8/p6iDsHh7EU3G9RCs3aNcuyb/+DL9YDaTN7wQZLfmJmGzD
4qSnojRUQ7+84aCpkrBac653pxVNo+06FqJtElgxMs7teQ==
-----END X509 CRL-----
