Certificate:
    Data:
        Version: 3 (0x2)
        Serial Number: 1 (0x1)
        Signature Algorithm: sha256WithRSAEncryption
        Issuer: O=Dialedin, CN=Dialedin Provisioning CA Root
        Validity
            Not Before: Jan  1 00:00:00 1970 GMT
            Not After : Dec 31 23:59:59 9999 GMT
        Subject: O=Dialedin, CN=Dialedin Provisioning CA Root
        Subject Public Key Info:
            Public Key Algorithm: rsaEncryption
                RSA Public-Key: (2048 bit)
                Modulus:
                    00:e8:12:fd:13:b0:4c:03:96:15:65:d2:3d:ab:0f:
                    61:4f:ed:fa:5a:e5:4d:07:81:11:54:96:84:0f:7c:
                    a0:07:c0:11:43:da:d9:6c:47:30:00:53:d7:0d:3b:
                    83:ea:28:63:38:d4:fc:80:f7:07:d1:cb:7b:05:75:
                    bc:55:9d:df:6b:4e:e6:8e:c4:06:90:16:68:d0:e7:
                    19:7f:4c:0f:1c:03:25:6c:f5:40:27:78:c0:4a:a7:
                    6c:d7:65:94:60:51:3f:54:cf:f4:f4:35:40:de:51:
                    f5:82:63:d4:d6:31:79:aa:16:01:e9:12:39:c1:f3:
                    04:9e:db:c3:92:ba:8a:a3:e6:4e:ee:0c:44:dc:de:
                    ed:48:88:96:cd:53:ed:e6:78:86:e1:a6:a6:8f:b2:
                    d6:48:6d:13:9b:14:ec:36:99:22:25:22:16:b1:eb:
                    dc:07:23:a7:10:c4:d7:0e:0f:6f:b8:89:31:50:44:
                    68:d5:c6:3d:0f:d0:a9:1b:d0:a4:12:43:5f:a1:c1:
                    a6:6c:b6:ea:58:a5:e1:f0:58:68:d0:1f:a2:74:32:
                    49:f4:bd:94:7b:91:1d:8b:56:6b:42:b0:bb:5b:ca:
                    69:66:c2:d9:a5:6b:27:06:a3:e4:cd:f0:08:a0:6d:
                    a5:d5:c4:5c:4d:33:69:23:c1:67:87:a0:b9:2c:d4:
                    31:df
                Exponent: 65537 (0x10001)
        X509v3 extensions:
            X509v3 Subject Key Identifier: 
                20:4A:99:C4:CA:5C:CC:58:6F:CA:0C:5F:EA:74:6D:7B:4B:88:8F:86
            X509v3 Authority Key Identifier: 
                keyid:20:4A:99:C4:CA:5C:CC:58:6F:CA:0C:5F:EA:74:6D:7B:4B:88:8F:86
                DirName:/O=Dialedin/CN=Dialedin Provisioning CA Root
                serial:01

            X509v3 Basic Constraints: 
                CA:TRUE
    Signature Algorithm: sha256WithRSAEncryption
         88:ef:db:63:fa:82:8e:8f:4c:3e:a4:bd:76:c9:cf:33:8a:f8:
         8c:b5:9a:c3:b5:b3:d1:9b:93:94:58:7a:db:6f:38:03:6a:e0:
         b1:9a:d0:27:f1:87:83:30:b1:85:50:19:5e:04:36:f4:d3:23:
         c0:68:93:7a:90:8f:49:4c:19:b6:35:66:18:c0:7d:4e:48:14:
         26:6d:3b:9a:e6:c7:6e:4a:a0:de:3e:4c:e9:76:96:45:c0:f2:
         a3:bd:d6:d1:c9:8e:3c:c7:a4:d2:ea:e7:ff:5b:64:c9:42:e1:
         28:67:7b:86:db:e8:36:27:f8:e2:7a:35:12:4d:7e:7a:59:6e:
         b6:8e:6c:dc:10:ca:6c:f7:82:e5:a9:da:80:72:6a:aa:e2:26:
         0c:85:58:b0:99:a5:2d:cb:ae:29:cc:f1:06:79:f8:54:38:d3:
         02:a8:0a:9f:32:54:d2:d7:f9:d9:e3:23:9f:cb:4d:63:e8:3c:
         17:bc:62:cf:b3:d6:61:1a:72:8a:a9:4f:fb:c6:1a:b1:30:e1:
         01:b4:34:fd:ea:14:a1:43:22:00:d3:b1:7b:57:6e:71:5c:6e:
         45:30:5d:f4:b0:98:52:36:a7:e0:c4:7e:4e:32:54:01:42:da:
         7c:ca:4a:b5:3b:58:ac:72:47:52:cc:e6:78:b6:b1:10:7e:c7:
         84:e3:97:49
-----BEGIN CERTIFICATE-----
MIIDiTCCAnGgAwIBAgIBATANBgkqhkiG9w0BAQsFADA7MREwDwYDVQQKDAhEaWFs
ZWRpbjEmMCQGA1UEAwwdRGlhbGVkaW4gUHJvdmlzaW9uaW5nIENBIFJvb3QwIBcN
NzAwMTAxMDAwMDAwWhgPOTk5OTEyMzEyMzU5NTlaMDsxETAPBgNVBAoMCERpYWxl
ZGluMSYwJAYDVQQDDB1EaWFsZWRpbiBQcm92aXNpb25pbmcgQ0EgUm9vdDCCASIw
DQYJKoZIhvcNAQEBBQADggEPADCCAQoCggEBAOgS/ROwTAOWFWXSPasPYU/t+lrl
TQeBEVSWhA98oAfAEUPa2WxHMABT1w07g+ooYzjU/ID3B9HLewV1vFWd32tO5o7E
BpAWaNDnGX9MDxwDJWz1QCd4wEqnbNdllGBRP1TP9PQ1QN5R9YJj1NYxeaoWAekS
OcHzBJ7bw5K6iqPmTu4MRNze7UiIls1T7eZ4huGmpo+y1khtE5sU7DaZIiUiFrHr
3AcjpxDE1w4Pb7iJMVBEaNXGPQ/QqRvQpBJDX6HBpmy26lil4fBYaNAfonQySfS9
lHuRHYtWa0Kwu1vKaWbC2aVrJwaj5M3wCKBtpdXEXE0zaSPBZ4eguSzUMd8CAwEA
AaOBlTCBkjAdBgNVHQ4EFgQUIEqZxMpczFhvygxf6nRte0uIj4YwYwYDVR0jBFww
WoAUIEqZxMpczFhvygxf6nRte0uIj4ahP6Q9MDsxETAPBgNVBAoMCERpYWxlZGlu
MSYwJAYDVQQDDB1EaWFsZWRpbiBQcm92aXNpb25pbmcgQ0EgUm9vdIIBATAMBgNV
HRMEBTADAQH/MA0GCSqGSIb3DQEBCwUAA4IBAQCI79tj+oKOj0w+pL12yc8ziviM
tZrDtbPRm5OUWHrbbzgDauCxmtAn8YeDMLGFUBleBDb00yPAaJN6kI9JTBm2NWYY
wH1OSBQmbTua5sduSqDePkzpdpZFwPKjvdbRyY48x6TS6uf/W2TJQuEoZ3uG2+g2
J/jiejUSTX56WW62jmzcEMps94LlqdqAcmqq4iYMhViwmaUty64pzPEGefhUONMC
qAqfMlTS1/nZ4yOfy01j6DwXvGLPs9ZhGnKKqU/7xhqxMOEBtDT96hShQyIA07F7
V25xXG5FMF30sJhSNqfgxH5OMlQBQtp8ykq1O1isckdSzOZ4trEQfseE45dJ
-----END CERTIFICATE-----
-----BEGIN X509 CRL-----
MIIBgDBqMA0GCSqGSIb3DQEBCwUAMDsxETAPBgNVBAoMCERpYWxlZGluMSYwJAYD
VQQDDB1EaWFsZWRpbiBQcm92aXNpb25pbmcgQ0EgUm9vdBcNMjMxMDEwMDY0MDE4
WhcNMzcwNjE4MDY0MDE4WjANBgkqhkiG9w0BAQsFAAOCAQEAqa86X9uXxF5Z3OI2
mmWirdo7DWnIt3N57mP1OpoZAq1QcWZyIYI5SQ48xM34iAc5dQ8zd57CjVD3ZC6L
oUG9EOV4LLprTWaIClIHuOrjoR7IUcmLQlRS9tbahFN2/xIWezJSnF82PP2sPvoA
xKiHNzVMtwTqBHfD47/+S7rs0R0twBNcJY+IMiYk8U+0exGm30wrX/DzFxWkmMLy
735ipdS+RRZZRDeDcl2RPHIrYlygmUODsiAAGcPT/Au4qRngpaVCORYGvFq9vXg3
10SaD0jGbmIe81kMt7WPY5RtA/tHmhyI9XAIEcVk3VA1l/PpDVLk47Lr+O1fvo/o
4qgd2Q==
-----END X509 CRL-----
Certificate:
    Data:
        Version: 3 (0x2)
        Serial Number: 3 (0x3)
        Signature Algorithm: sha256WithRSAEncryption
        Issuer: O=Dialedin, CN=Dialedin Provisioning CA Root
        Validity
            Not Before: Jan  1 00:00:00 1970 GMT
            Not After : Dec 31 23:59:59 9999 GMT
        Subject: O=Dialedin, CN=Dialedin Provisioning CA Release
        Subject Public Key Info:
            Public Key Algorithm: rsaEncryption
                RSA Public-Key: (2048 bit)
                Modulus:
                    00:ea:45:50:f4:b9:00:1e:e9:53:fc:a5:23:4e:49:
                    e6:d2:d3:b3:f3:aa:de:15:30:7c:0e:17:d4:fe:40:
                    cf:d8:e3:e2:17:b3:45:6a:f0:f4:c4:82:39:ca:02:
                    c1:80:d3:09:d0:2c:5a:f8:94:33:72:6e:df:f2:20:
                    1c:18:6b:40:33:7c:3c:41:e3:f5:59:9c:b4:6f:92:
                    0b:79:99:05:43:93:db:89:24:fa:22:4e:bc:ef:b9:
                    01:36:b7:8b:be:cb:4e:19:80:b3:b0:9b:52:fe:43:
                    67:88:12:76:a0:dc:00:55:10:87:0a:c4:54:a0:42:
                    02:a2:be:c8:2a:de:6a:e9:7e:4c:c7:46:14:1f:1e:
                    69:e5:74:6b:bb:e3:d4:7e:cf:8f:af:a0:11:5d:6a:
                    98:65:30:6e:d6:37:16:7f:84:d7:d7:37:41:7f:f1:
                    ef:98:0c:0f:30:e0:fe:3c:c8:43:10:0f:66:3d:62:
                    76:0d:e4:16:6c:32:b5:d5:f4:89:fa:6e:d9:91:4b:
                    ea:b6:66:41:36:38:d2:4e:06:b4:b3:1a:ca:61:30:
                    c2:af:56:97:04:16:79:18:02:e0:2f:76:72:16:9a:
                    22:bd:36:79:78:c2:2d:73:bd:ec:3d:c1:22:d9:22:
                    ed:1e:e4:a4:e2:d3:5c:75:06:3d:53:24:77:7a:56:
                    81:29
                Exponent: 65537 (0x10001)
        X509v3 extensions:
            X509v3 Subject Key Identifier: 
                5A:69:D9:FB:39:F6:77:05:27:BA:77:28:EC:E1:EF:1A:C4:3B:A0:90
            X509v3 Authority Key Identifier: 
                keyid:20:4A:99:C4:CA:5C:CC:58:6F:CA:0C:5F:EA:74:6D:7B:4B:88:8F:86
                DirName:/O=Dialedin/CN=Dialedin Provisioning CA Root
                serial:01

            X509v3 Basic Constraints: 
                CA:TRUE, pathlen:0
    Signature Algorithm: sha256WithRSAEncryption
         ca:be:bd:d2:5b:a5:0b:4f:d3:76:a2:a4:03:da:27:ab:02:34:
         4c:6f:38:09:c3:22:bd:73:2d:9c:3b:c0:65:7d:a0:a0:3b:ed:
         61:64:31:3e:24:03:9d:05:95:bc:25:6b:7b:7a:a9:72:05:1d:
         e5:fb:af:5b:57:e1:63:ad:4c:f7:42:c0:00:21:98:9e:3d:b9:
         a2:ae:8b:48:fa:da:7d:13:e8:be:e2:d7:70:4d:62:fd:3e:65:
         8f:5a:1b:f2:9c:d1:72:93:91:d7:54:f4:9f:c0:be:1a:ad:56:
         2c:c6:c2:dc:dc:43:27:0d:35:da:cd:49:72:f5:24:6e:0a:8f:
         f8:5d:f3:88:00:93:98:72:9c:b2:79:7a:2e:e8:7d:2f:4c:df:
         ea:f3:52:70:76:f6:d7:5d:15:dd:ae:8f:3c:83:f6:19:aa:56:
         3f:c3:e0:99:bf:88:90:52:f5:aa:c5:39:a0:df:72:ef:0e:fb:
         11:fa:6a:ef:e3:54:97:9c:d8:9e:02:95:61:77:d0:e1:24:52:
         a7:48:a7:e0:70:a8:e1:75:7e:36:9a:79:b5:91:1c:01:78:80:
         4d:bd:a1:69:82:31:31:87:de:44:65:70:df:4a:ba:84:7f:91:
         61:e6:40:95:12:84:63:ad:3e:38:5a:fc:1c:5e:a0:1f:77:ed:
         fe:08:9f:28
-----BEGIN CERTIFICATE-----
MIIDjzCCAnegAwIBAgIBAzANBgkqhkiG9w0BAQsFADA7MREwDwYDVQQKDAhEaWFs
ZWRpbjEmMCQGA1UEAwwdRGlhbGVkaW4gUHJvdmlzaW9uaW5nIENBIFJvb3QwIBcN
NzAwMTAxMDAwMDAwWhgPOTk5OTEyMzEyMzU5NTlaMD4xETAPBgNVBAoMCERpYWxl
ZGluMSkwJwYDVQQDDCBEaWFsZWRpbiBQcm92aXNpb25pbmcgQ0EgUmVsZWFzZTCC
ASIwDQYJKoZIhvcNAQEBBQADggEPADCCAQoCggEBAOpFUPS5AB7pU/ylI05J5tLT
s/Oq3hUwfA4X1P5Az9jj4hezRWrw9MSCOcoCwYDTCdAsWviUM3Ju3/IgHBhrQDN8
PEHj9VmctG+SC3mZBUOT24kk+iJOvO+5ATa3i77LThmAs7CbUv5DZ4gSdqDcAFUQ
hwrEVKBCAqK+yCreaul+TMdGFB8eaeV0a7vj1H7Pj6+gEV1qmGUwbtY3Fn+E19c3
QX/x75gMDzDg/jzIQxAPZj1idg3kFmwytdX0ifpu2ZFL6rZmQTY40k4GtLMaymEw
wq9WlwQWeRgC4C92chaaIr02eXjCLXO97D3BItki7R7kpOLTXHUGPVMkd3pWgSkC
AwEAAaOBmDCBlTAdBgNVHQ4EFgQUWmnZ+zn2dwUnunco7OHvGsQ7oJAwYwYDVR0j
BFwwWoAUIEqZxMpczFhvygxf6nRte0uIj4ahP6Q9MDsxETAPBgNVBAoMCERpYWxl
ZGluMSYwJAYDVQQDDB1EaWFsZWRpbiBQcm92aXNpb25pbmcgQ0EgUm9vdIIBATAP
BgNVHRMECDAGAQH/AgEAMA0GCSqGSIb3DQEBCwUAA4IBAQDKvr3SW6ULT9N2oqQD
2ierAjRMbzgJwyK9cy2cO8BlfaCgO+1hZDE+JAOdBZW8JWt7eqlyBR3l+69bV+Fj
rUz3QsAAIZiePbmirotI+tp9E+i+4tdwTWL9PmWPWhvynNFyk5HXVPSfwL4arVYs
xsLc3EMnDTXazUly9SRuCo/4XfOIAJOYcpyyeXou6H0vTN/q81JwdvbXXRXdro88
g/YZqlY/w+CZv4iQUvWqxTmg33LvDvsR+mrv41SXnNieApVhd9DhJFKnSKfgcKjh
dX42mnm1kRwBeIBNvaFpgjExh95EZXDfSrqEf5Fh5kCVEoRjrT44WvwcXqAfd+3+
CJ8o
-----END CERTIFICATE-----
-----BEGIN X509 CRL-----
MIIBgzBtMA0GCSqGSIb3DQEBCwUAMD4xETAPBgNVBAoMCERpYWxlZGluMSkwJwYD
VQQDDCBEaWFsZWRpbiBQcm92aXNpb25pbmcgQ0EgUmVsZWFzZRcNMjMxMDEwMDY0
MDE4WhcNMzcwNjE4MDY0MDE4WjANBgkqhkiG9w0BAQsFAAOCAQEAdmC/+7CkZejW
uXIeObKfK2XPskLjElwfPnF6b91KSgPAq+fl8LNrTM5rB5J3NpdUSJzPQtyggHxs
H7n2EcjXaS2VZndHrmqvwE8JNbMduVbrdvLI0gr/6eKM5Ibw2hWUfybtVS9VuA15
1pO/ISwlBwlUdSzvrqXNVugSlyOSQxPx75xuf6Ck08l65c2AIcvI5DwhDlB7m0ZQ
5ATrmWJhwiJUELpH5BV5hUSywLlJQV+76+Pmd288Qk64PUT0rwYBeCWTt4ws6ATY
gT5o0Aqr6+e6b6E1P9y69XSLMEMxbFIErm6vbOFICgajHS8ParVKt2wzdnXiZRoh
NGuaYjr48A==
-----END X509 CRL-----
